; Function Attrs: mustprogress nounwind uwtable
define void @_ZN6duckdb12BufferedDataD2Ev(ptr noundef nonnull align 8 captures(none) dereferenceable(80) initializes((0, 8)) %0) unnamed_addr #3 align 2 personality ptr @__gxx_personality_v0 {
  store ptr getelementptr inbounds nuw inrange(-16, 40) (i8, ptr @_ZTVN6duckdb12BufferedDataE, i64 16), ptr %0, align 8, !tbaa !3
  %2 = getelementptr inbounds nuw i8, ptr %0, i64 24
  %3 = load ptr, ptr %2, align 8, !tbaa !21
  %.not.i.i.i = icmp eq ptr %3, null
  br i1 %.not.i.i.i, label %_ZN6duckdb8weak_ptrINS_13ClientContextELb1EED2Ev.exit, label %4

4:                                                ; preds = %1
  %5 = getelementptr inbounds nuw i8, ptr %3, i64 12
  %6 = load i8, ptr @__libc_single_threaded, align 1, !tbaa !48
  %.not.i.i.i.i = icmp eq i8 %6, 0
  br i1 %.not.i.i.i.i, label %10, label %7

7:                                                ; preds = %4
  %8 = load i32, ptr %5, align 4, !tbaa !49
  %9 = add nsw i32 %8, -1
  store i32 %9, ptr %5, align 4, !tbaa !49
  br label %_ZN9__gnu_cxx27__exchange_and_add_dispatchEPii.exit.i.i.i.i

10:                                               ; preds = %4
  %11 = atomicrmw volatile add ptr %5, i32 -1 acq_rel, align 4
  br label %_ZN9__gnu_cxx27__exchange_and_add_dispatchEPii.exit.i.i.i.i

_ZN9__gnu_cxx27__exchange_and_add_dispatchEPii.exit.i.i.i.i: ; preds = %10, %7
  %.0.i.i.i.i.i = phi i32 [ %8, %7 ], [ %11, %10 ]
  %12 = icmp eq i32 %.0.i.i.i.i.i, 1
  br i1 %12, label %13, label %_ZN6duckdb8weak_ptrINS_13ClientContextELb1EED2Ev.exit

13:                                               ; preds = %_ZN9__gnu_cxx27__exchange_and_add_dispatchEPii.exit.i.i.i.i
  %14 = load ptr, ptr %3, align 8, !tbaa !3
  %15 = getelementptr inbounds nuw i8, ptr %14, i64 24
  %16 = load ptr, ptr %15, align 8
  tail call void %16(ptr noundef nonnull align 8 dereferenceable(16) %3) #24
  br label %_ZN6duckdb8weak_ptrINS_13ClientContextELb1EED2Ev.exit

_ZN6duckdb8weak_ptrINS_13ClientContextELb1EED2Ev.exit: ; preds = %1, %_ZN9__gnu_cxx27__exchange_and_add_dispatchEPii.exit.i.i.i.i, %13
  ret void
}